; ModuleID = 'source-C-CXX/21/43.c'
source_filename = "source-C-CXX/21/43.c"
target datalayout = "e-m:e-p270:32:32-p271:32:32-p272:64:64-i64:64-f80:128-n8:16:32:64-S128"
target triple = "x86_64-pc-linux-gnu"

%struct._IO_FILE = type { i32, i8*, i8*, i8*, i8*, i8*, i8*, i8*, i8*, i8*, i8*, i8*, %struct._IO_marker*, %struct._IO_FILE*, i32, i32, i64, i16, i8, [1 x i8], i8*, i64, %struct._IO_codecvt*, %struct._IO_wide_data*, %struct._IO_FILE*, i8*, i64, i32, [20 x i8] }
%struct._IO_marker = type opaque
%struct._IO_codecvt = type opaque
%struct._IO_wide_data = type opaque

@.str = private unnamed_addr constant [3 x i8] c"%d\00", align 1
@.str.1 = private unnamed_addr constant [4 x i8] c"%d\0A\00", align 1
@stdin = external local_unnamed_addr global %struct._IO_FILE*, align 8
@str = private unnamed_addr constant [3 x i8] c"No\00", align 1

; Function Attrs: nofree norecurse nosync nounwind readonly sspstrong uwtable
define dso_local i32 @max(i32* nocapture readonly %0, i32 %1) local_unnamed_addr #0 {
  %3 = load i32, i32* %0, align 4, !tbaa !5
  %4 = icmp sgt i32 %1, 1
  br i1 %4, label %5, label %90

5:                                                ; preds = %2
  %6 = zext i32 %1 to i64
  %7 = add nsw i64 %6, -1
  %8 = icmp ult i64 %7, 8
  br i1 %8, label %78, label %9

9:                                                ; preds = %5
  %10 = and i64 %7, -8
  %11 = or i64 %10, 1
  %12 = insertelement <4 x i32> poison, i32 %3, i32 0
  %13 = shufflevector <4 x i32> %12, <4 x i32> poison, <4 x i32> zeroinitializer
  %14 = add nsw i64 %10, -8
  %15 = lshr exact i64 %14, 3
  %16 = add nuw nsw i64 %15, 1
  %17 = and i64 %16, 1
  %18 = icmp eq i64 %14, 0
  br i1 %18, label %53, label %19

19:                                               ; preds = %9
  %20 = and i64 %16, 4611686018427387902
  br label %21

21:                                               ; preds = %21, %19
  %22 = phi i64 [ 0, %19 ], [ %48, %21 ]
  %23 = phi <4 x i32> [ %13, %19 ], [ %46, %21 ]
  %24 = phi <4 x i32> [ %13, %19 ], [ %47, %21 ]
  %25 = phi i64 [ %20, %19 ], [ %49, %21 ]
  %26 = or i64 %22, 1
  %27 = getelementptr inbounds i32, i32* %0, i64 %26
  %28 = bitcast i32* %27 to <4 x i32>*
  %29 = load <4 x i32>, <4 x i32>* %28, align 4, !tbaa !5
  %30 = getelementptr inbounds i32, i32* %27, i64 4
  %31 = bitcast i32* %30 to <4 x i32>*
  %32 = load <4 x i32>, <4 x i32>* %31, align 4, !tbaa !5
  %33 = icmp sgt <4 x i32> %29, %23
  %34 = icmp sgt <4 x i32> %32, %24
  %35 = select <4 x i1> %33, <4 x i32> %29, <4 x i32> %23
  %36 = select <4 x i1> %34, <4 x i32> %32, <4 x i32> %24
  %37 = or i64 %22, 9
  %38 = getelementptr inbounds i32, i32* %0, i64 %37
  %39 = bitcast i32* %38 to <4 x i32>*
  %40 = load <4 x i32>, <4 x i32>* %39, align 4, !tbaa !5
  %41 = getelementptr inbounds i32, i32* %38, i64 4
  %42 = bitcast i32* %41 to <4 x i32>*
  %43 = load <4 x i32>, <4 x i32>* %42, align 4, !tbaa !5
  %44 = icmp sgt <4 x i32> %40, %35
  %45 = icmp sgt <4 x i32> %43, %36
  %46 = select <4 x i1> %44, <4 x i32> %40, <4 x i32> %35
  %47 = select <4 x i1> %45, <4 x i32> %43, <4 x i32> %36
  %48 = add nuw i64 %22, 16
  %49 = add i64 %25, -2
  %50 = icmp eq i64 %49, 0
  br i1 %50, label %51, label %21, !llvm.loop !9

51:                                               ; preds = %21
  %52 = or i64 %48, 1
  br label %53

53:                                               ; preds = %51, %9
  %54 = phi <4 x i32> [ undef, %9 ], [ %46, %51 ]
  %55 = phi <4 x i32> [ undef, %9 ], [ %47, %51 ]
  %56 = phi i64 [ 1, %9 ], [ %52, %51 ]
  %57 = phi <4 x i32> [ %13, %9 ], [ %46, %51 ]
  %58 = phi <4 x i32> [ %13, %9 ], [ %47, %51 ]
  %59 = icmp eq i64 %17, 0
  br i1 %59, label %71, label %60

60:                                               ; preds = %53
  %61 = getelementptr inbounds i32, i32* %0, i64 %56
  %62 = bitcast i32* %61 to <4 x i32>*
  %63 = load <4 x i32>, <4 x i32>* %62, align 4, !tbaa !5
  %64 = getelementptr inbounds i32, i32* %61, i64 4
  %65 = bitcast i32* %64 to <4 x i32>*
  %66 = load <4 x i32>, <4 x i32>* %65, align 4, !tbaa !5
  %67 = icmp sgt <4 x i32> %66, %58
  %68 = select <4 x i1> %67, <4 x i32> %66, <4 x i32> %58
  %69 = icmp sgt <4 x i32> %63, %57
  %70 = select <4 x i1> %69, <4 x i32> %63, <4 x i32> %57
  br label %71

71:                                               ; preds = %53, %60
  %72 = phi <4 x i32> [ %54, %53 ], [ %70, %60 ]
  %73 = phi <4 x i32> [ %55, %53 ], [ %68, %60 ]
  %74 = icmp sgt <4 x i32> %72, %73
  %75 = select <4 x i1> %74, <4 x i32> %72, <4 x i32> %73
  %76 = call i32 @llvm.vector.reduce.smax.v4i32(<4 x i32> %75)
  %77 = icmp eq i64 %7, %10
  br i1 %77, label %90, label %78

78:                                               ; preds = %5, %71
  %79 = phi i64 [ 1, %5 ], [ %11, %71 ]
  %80 = phi i32 [ %3, %5 ], [ %76, %71 ]
  br label %81

81:                                               ; preds = %78, %81
  %82 = phi i64 [ %88, %81 ], [ %79, %78 ]
  %83 = phi i32 [ %87, %81 ], [ %80, %78 ]
  %84 = getelementptr inbounds i32, i32* %0, i64 %82
  %85 = load i32, i32* %84, align 4, !tbaa !5
  %86 = icmp sgt i32 %85, %83
  %87 = select i1 %86, i32 %85, i32 %83
  %88 = add nuw nsw i64 %82, 1
  %89 = icmp eq i64 %88, %6
  br i1 %89, label %90, label %81, !llvm.loop !12

90:                                               ; preds = %81, %71, %2
  %91 = phi i32 [ %3, %2 ], [ %76, %71 ], [ %87, %81 ]
  ret i32 %91
}

; Function Attrs: argmemonly mustprogress nofree nosync nounwind willreturn
declare void @llvm.lifetime.start.p0i8(i64 immarg, i8* nocapture) #1

; Function Attrs: argmemonly mustprogress nofree nosync nounwind willreturn
declare void @llvm.lifetime.end.p0i8(i64 immarg, i8* nocapture) #1

; Function Attrs: nofree nounwind sspstrong uwtable
define dso_local void @main() local_unnamed_addr #2 {
  %1 = alloca [300 x i32], align 16
  %2 = bitcast [300 x i32]* %1 to i8*
  call void @llvm.lifetime.start.p0i8(i64 1200, i8* nonnull %2) #7
  call void @llvm.memset.p0i8.i64(i8* noundef nonnull align 16 dereferenceable(1200) %2, i8 -1, i64 1200, i1 false)
  %3 = getelementptr inbounds [300 x i32], [300 x i32]* %1, i64 0, i64 0
  %4 = call i32 (i8*, ...) @__isoc99_scanf(i8* getelementptr inbounds ([3 x i8], [3 x i8]* @.str, i64 0, i64 0), i32* nonnull %3)
  br label %5

5:                                                ; preds = %0, %12
  %6 = phi i64 [ 1, %0 ], [ %16, %12 ]
  %7 = phi i32 [ 1, %0 ], [ %15, %12 ]
  %8 = load %struct._IO_FILE*, %struct._IO_FILE** @stdin, align 8, !tbaa !14
  %9 = call i32 @getc(%struct._IO_FILE* %8) #7
  %10 = and i32 %9, 255
  %11 = icmp eq i32 %10, 10
  br i1 %11, label %20, label %12

12:                                               ; preds = %5
  %13 = getelementptr inbounds [300 x i32], [300 x i32]* %1, i64 0, i64 %6
  %14 = call i32 (i8*, ...) @__isoc99_scanf(i8* getelementptr inbounds ([3 x i8], [3 x i8]* @.str, i64 0, i64 0), i32* nonnull %13)
  %15 = add nuw nsw i32 %7, 1
  %16 = add nuw nsw i64 %6, 1
  %17 = icmp eq i64 %16, 300
  br i1 %17, label %18, label %5, !llvm.loop !16

18:                                               ; preds = %12
  %19 = load i32, i32* %3, align 16, !tbaa !5
  br label %23

20:                                               ; preds = %5
  %21 = load i32, i32* %3, align 16, !tbaa !5
  %22 = icmp ugt i32 %7, 1
  br i1 %22, label %23, label %110

23:                                               ; preds = %18, %20
  %24 = phi i32 [ %19, %18 ], [ %21, %20 ]
  %25 = phi i32 [ 300, %18 ], [ %7, %20 ]
  %26 = zext i32 %25 to i64
  %27 = add nsw i64 %26, -1
  %28 = icmp ult i64 %27, 8
  br i1 %28, label %98, label %29

29:                                               ; preds = %23
  %30 = and i64 %27, -8
  %31 = or i64 %30, 1
  %32 = insertelement <4 x i32> poison, i32 %24, i32 0
  %33 = shufflevector <4 x i32> %32, <4 x i32> poison, <4 x i32> zeroinitializer
  %34 = add nsw i64 %30, -8
  %35 = lshr exact i64 %34, 3
  %36 = add nuw nsw i64 %35, 1
  %37 = and i64 %36, 1
  %38 = icmp eq i64 %34, 0
  br i1 %38, label %73, label %39

39:                                               ; preds = %29
  %40 = and i64 %36, 4611686018427387902
  br label %41

41:                                               ; preds = %41, %39
  %42 = phi i64 [ 0, %39 ], [ %68, %41 ]
  %43 = phi <4 x i32> [ %33, %39 ], [ %66, %41 ]
  %44 = phi <4 x i32> [ %33, %39 ], [ %67, %41 ]
  %45 = phi i64 [ %40, %39 ], [ %69, %41 ]
  %46 = or i64 %42, 1
  %47 = getelementptr inbounds [300 x i32], [300 x i32]* %1, i64 0, i64 %46
  %48 = bitcast i32* %47 to <4 x i32>*
  %49 = load <4 x i32>, <4 x i32>* %48, align 4, !tbaa !5
  %50 = getelementptr inbounds i32, i32* %47, i64 4
  %51 = bitcast i32* %50 to <4 x i32>*
  %52 = load <4 x i32>, <4 x i32>* %51, align 4, !tbaa !5
  %53 = icmp sgt <4 x i32> %49, %43
  %54 = icmp sgt <4 x i32> %52, %44
  %55 = select <4 x i1> %53, <4 x i32> %49, <4 x i32> %43
  %56 = select <4 x i1> %54, <4 x i32> %52, <4 x i32> %44
  %57 = or i64 %42, 9
  %58 = getelementptr inbounds [300 x i32], [300 x i32]* %1, i64 0, i64 %57
  %59 = bitcast i32* %58 to <4 x i32>*
  %60 = load <4 x i32>, <4 x i32>* %59, align 4, !tbaa !5
  %61 = getelementptr inbounds i32, i32* %58, i64 4
  %62 = bitcast i32* %61 to <4 x i32>*
  %63 = load <4 x i32>, <4 x i32>* %62, align 4, !tbaa !5
  %64 = icmp sgt <4 x i32> %60, %55
  %65 = icmp sgt <4 x i32> %63, %56
  %66 = select <4 x i1> %64, <4 x i32> %60, <4 x i32> %55
  %67 = select <4 x i1> %65, <4 x i32> %63, <4 x i32> %56
  %68 = add nuw i64 %42, 16
  %69 = add i64 %45, -2
  %70 = icmp eq i64 %69, 0
  br i1 %70, label %71, label %41, !llvm.loop !17

71:                                               ; preds = %41
  %72 = or i64 %68, 1
  br label %73

73:                                               ; preds = %71, %29
  %74 = phi <4 x i32> [ undef, %29 ], [ %66, %71 ]
  %75 = phi <4 x i32> [ undef, %29 ], [ %67, %71 ]
  %76 = phi i64 [ 1, %29 ], [ %72, %71 ]
  %77 = phi <4 x i32> [ %33, %29 ], [ %66, %71 ]
  %78 = phi <4 x i32> [ %33, %29 ], [ %67, %71 ]
  %79 = icmp eq i64 %37, 0
  br i1 %79, label %91, label %80

80:                                               ; preds = %73
  %81 = getelementptr inbounds [300 x i32], [300 x i32]* %1, i64 0, i64 %76
  %82 = bitcast i32* %81 to <4 x i32>*
  %83 = load <4 x i32>, <4 x i32>* %82, align 4, !tbaa !5
  %84 = getelementptr inbounds i32, i32* %81, i64 4
  %85 = bitcast i32* %84 to <4 x i32>*
  %86 = load <4 x i32>, <4 x i32>* %85, align 4, !tbaa !5
  %87 = icmp sgt <4 x i32> %86, %78
  %88 = select <4 x i1> %87, <4 x i32> %86, <4 x i32> %78
  %89 = icmp sgt <4 x i32> %83, %77
  %90 = select <4 x i1> %89, <4 x i32> %83, <4 x i32> %77
  br label %91

91:                                               ; preds = %73, %80
  %92 = phi <4 x i32> [ %74, %73 ], [ %90, %80 ]
  %93 = phi <4 x i32> [ %75, %73 ], [ %88, %80 ]
  %94 = icmp sgt <4 x i32> %92, %93
  %95 = select <4 x i1> %94, <4 x i32> %92, <4 x i32> %93
  %96 = call i32 @llvm.vector.reduce.smax.v4i32(<4 x i32> %95)
  %97 = icmp eq i64 %27, %30
  br i1 %97, label %110, label %98

98:                                               ; preds = %23, %91
  %99 = phi i64 [ 1, %23 ], [ %31, %91 ]
  %100 = phi i32 [ %24, %23 ], [ %96, %91 ]
  br label %101

101:                                              ; preds = %98, %101
  %102 = phi i64 [ %108, %101 ], [ %99, %98 ]
  %103 = phi i32 [ %107, %101 ], [ %100, %98 ]
  %104 = getelementptr inbounds [300 x i32], [300 x i32]* %1, i64 0, i64 %102
  %105 = load i32, i32* %104, align 4, !tbaa !5
  %106 = icmp sgt i32 %105, %103
  %107 = select i1 %106, i32 %105, i32 %103
  %108 = add nuw nsw i64 %102, 1
  %109 = icmp eq i64 %108, %26
  br i1 %109, label %110, label %101, !llvm.loop !18

110:                                              ; preds = %101, %91, %20
  %111 = phi i1 [ false, %20 ], [ true, %91 ], [ true, %101 ]
  %112 = phi i32 [ %21, %20 ], [ %24, %91 ], [ %24, %101 ]
  %113 = phi i64 [ 1, %20 ], [ %26, %91 ], [ %26, %101 ]
  %114 = phi i32 [ %21, %20 ], [ %96, %91 ], [ %107, %101 ]
  br label %115

115:                                              ; preds = %124, %110
  %116 = phi i32 [ %112, %110 ], [ %126, %124 ]
  %117 = phi i64 [ 0, %110 ], [ %122, %124 ]
  %118 = icmp eq i32 %116, %114
  br i1 %118, label %119, label %121

119:                                              ; preds = %115
  %120 = getelementptr inbounds [300 x i32], [300 x i32]* %1, i64 0, i64 %117
  store i32 -1, i32* %120, align 4, !tbaa !5
  br label %121

121:                                              ; preds = %115, %119
  %122 = add nuw nsw i64 %117, 1
  %123 = icmp eq i64 %122, %113
  br i1 %123, label %127, label %124, !llvm.loop !19

124:                                              ; preds = %121
  %125 = getelementptr inbounds [300 x i32], [300 x i32]* %1, i64 0, i64 %122
  %126 = load i32, i32* %125, align 4, !tbaa !5
  br label %115

127:                                              ; preds = %121
  %128 = load i32, i32* %3, align 16, !tbaa !5
  br i1 %111, label %129, label %213

129:                                              ; preds = %127
  %130 = add nsw i64 %113, -1
  %131 = icmp ult i64 %130, 8
  br i1 %131, label %201, label %132

132:                                              ; preds = %129
  %133 = and i64 %130, -8
  %134 = or i64 %133, 1
  %135 = insertelement <4 x i32> poison, i32 %128, i32 0
  %136 = shufflevector <4 x i32> %135, <4 x i32> poison, <4 x i32> zeroinitializer
  %137 = add nsw i64 %133, -8
  %138 = lshr exact i64 %137, 3
  %139 = add nuw nsw i64 %138, 1
  %140 = and i64 %139, 1
  %141 = icmp eq i64 %137, 0
  br i1 %141, label %176, label %142

142:                                              ; preds = %132
  %143 = and i64 %139, 4611686018427387902
  br label %144

144:                                              ; preds = %144, %142
  %145 = phi i64 [ 0, %142 ], [ %171, %144 ]
  %146 = phi <4 x i32> [ %136, %142 ], [ %169, %144 ]
  %147 = phi <4 x i32> [ %136, %142 ], [ %170, %144 ]
  %148 = phi i64 [ %143, %142 ], [ %172, %144 ]
  %149 = or i64 %145, 1
  %150 = getelementptr inbounds [300 x i32], [300 x i32]* %1, i64 0, i64 %149
  %151 = bitcast i32* %150 to <4 x i32>*
  %152 = load <4 x i32>, <4 x i32>* %151, align 4, !tbaa !5
  %153 = getelementptr inbounds i32, i32* %150, i64 4
  %154 = bitcast i32* %153 to <4 x i32>*
  %155 = load <4 x i32>, <4 x i32>* %154, align 4, !tbaa !5
  %156 = icmp sgt <4 x i32> %152, %146
  %157 = icmp sgt <4 x i32> %155, %147
  %158 = select <4 x i1> %156, <4 x i32> %152, <4 x i32> %146
  %159 = select <4 x i1> %157, <4 x i32> %155, <4 x i32> %147
  %160 = or i64 %145, 9
  %161 = getelementptr inbounds [300 x i32], [300 x i32]* %1, i64 0, i64 %160
  %162 = bitcast i32* %161 to <4 x i32>*
  %163 = load <4 x i32>, <4 x i32>* %162, align 4, !tbaa !5
  %164 = getelementptr inbounds i32, i32* %161, i64 4
  %165 = bitcast i32* %164 to <4 x i32>*
  %166 = load <4 x i32>, <4 x i32>* %165, align 4, !tbaa !5
  %167 = icmp sgt <4 x i32> %163, %158
  %168 = icmp sgt <4 x i32> %166, %159
  %169 = select <4 x i1> %167, <4 x i32> %163, <4 x i32> %158
  %170 = select <4 x i1> %168, <4 x i32> %166, <4 x i32> %159
  %171 = add nuw i64 %145, 16
  %172 = add i64 %148, -2
  %173 = icmp eq i64 %172, 0
  br i1 %173, label %174, label %144, !llvm.loop !20

174:                                              ; preds = %144
  %175 = or i64 %171, 1
  br label %176

176:                                              ; preds = %174, %132
  %177 = phi <4 x i32> [ undef, %132 ], [ %169, %174 ]
  %178 = phi <4 x i32> [ undef, %132 ], [ %170, %174 ]
  %179 = phi i64 [ 1, %132 ], [ %175, %174 ]
  %180 = phi <4 x i32> [ %136, %132 ], [ %169, %174 ]
  %181 = phi <4 x i32> [ %136, %132 ], [ %170, %174 ]
  %182 = icmp eq i64 %140, 0
  br i1 %182, label %194, label %183

183:                                              ; preds = %176
  %184 = getelementptr inbounds [300 x i32], [300 x i32]* %1, i64 0, i64 %179
  %185 = bitcast i32* %184 to <4 x i32>*
  %186 = load <4 x i32>, <4 x i32>* %185, align 4, !tbaa !5
  %187 = getelementptr inbounds i32, i32* %184, i64 4
  %188 = bitcast i32* %187 to <4 x i32>*
  %189 = load <4 x i32>, <4 x i32>* %188, align 4, !tbaa !5
  %190 = icmp sgt <4 x i32> %189, %181
  %191 = select <4 x i1> %190, <4 x i32> %189, <4 x i32> %181
  %192 = icmp sgt <4 x i32> %186, %180
  %193 = select <4 x i1> %192, <4 x i32> %186, <4 x i32> %180
  br label %194

194:                                              ; preds = %176, %183
  %195 = phi <4 x i32> [ %177, %176 ], [ %193, %183 ]
  %196 = phi <4 x i32> [ %178, %176 ], [ %191, %183 ]
  %197 = icmp sgt <4 x i32> %195, %196
  %198 = select <4 x i1> %197, <4 x i32> %195, <4 x i32> %196
  %199 = call i32 @llvm.vector.reduce.smax.v4i32(<4 x i32> %198)
  %200 = icmp eq i64 %130, %133
  br i1 %200, label %213, label %201

201:                                              ; preds = %129, %194
  %202 = phi i64 [ 1, %129 ], [ %134, %194 ]
  %203 = phi i32 [ %128, %129 ], [ %199, %194 ]
  br label %204

204:                                              ; preds = %201, %204
  %205 = phi i64 [ %211, %204 ], [ %202, %201 ]
  %206 = phi i32 [ %210, %204 ], [ %203, %201 ]
  %207 = getelementptr inbounds [300 x i32], [300 x i32]* %1, i64 0, i64 %205
  %208 = load i32, i32* %207, align 4, !tbaa !5
  %209 = icmp sgt i32 %208, %206
  %210 = select i1 %209, i32 %208, i32 %206
  %211 = add nuw nsw i64 %205, 1
  %212 = icmp eq i64 %211, %113
  br i1 %212, label %213, label %204, !llvm.loop !21

213:                                              ; preds = %204, %194, %127
  %214 = phi i32 [ %128, %127 ], [ %199, %194 ], [ %210, %204 ]
  %215 = icmp eq i32 %214, -1
  br i1 %215, label %218, label %216

216:                                              ; preds = %213
  %217 = call i32 (i8*, ...) @printf(i8* nonnull dereferenceable(1) getelementptr inbounds ([4 x i8], [4 x i8]* @.str.1, i64 0, i64 0), i32 %214)
  br label %220

218:                                              ; preds = %213
  %219 = call i32 @puts(i8* nonnull dereferenceable(1) getelementptr inbounds ([3 x i8], [3 x i8]* @str, i64 0, i64 0))
  br label %220

220:                                              ; preds = %218, %216
  call void @llvm.lifetime.end.p0i8(i64 1200, i8* nonnull %2) #7
  ret void
}

; Function Attrs: nofree nounwind
declare noundef i32 @__isoc99_scanf(i8* nocapture noundef readonly, ...) local_unnamed_addr #3

; Function Attrs: nofree nounwind
declare noundef i32 @printf(i8* nocapture noundef readonly, ...) local_unnamed_addr #3

; Function Attrs: nofree nounwind
declare noundef i32 @getc(%struct._IO_FILE* nocapture noundef) local_unnamed_addr #3

; Function Attrs: nofree nounwind
declare noundef i32 @puts(i8* nocapture noundef readonly) local_unnamed_addr #4

; Function Attrs: argmemonly nofree nounwind willreturn writeonly
declare void @llvm.memset.p0i8.i64(i8* nocapture writeonly, i8, i64, i1 immarg) #5

; Function Attrs: nofree nosync nounwind readnone willreturn
declare i32 @llvm.vector.reduce.smax.v4i32(<4 x i32>) #6


!llvm.module.flags = !{!0, !1, !2, !3}
!llvm.ident = !{!4}

!0 = !{i32 1, !"wchar_size", i32 4}
!1 = !{i32 7, !"PIC Level", i32 2}
!2 = !{i32 7, !"PIE Level", i32 2}
!3 = !{i32 7, !"uwtable", i32 1}
!4 = !{!"clang version 13.0.0"}
!5 = !{!6, !6, i64 0}
!6 = !{!"int", !7, i64 0}
!7 = !{!"omnipotent char", !8, i64 0}
!8 = !{!"Simple C/C++ TBAA"}
!9 = distinct !{!9, !10, !11}
!10 = !{!"llvm.loop.mustprogress"}
!11 = !{!"llvm.loop.isvectorized", i32 1}
!12 = distinct !{!12, !10, !13, !11}
!13 = !{!"llvm.loop.unroll.runtime.disable"}
!14 = !{!15, !15, i64 0}
!15 = !{!"any pointer", !7, i64 0}
!16 = distinct !{!16, !10}
!17 = distinct !{!17, !10, !11}
!18 = distinct !{!18, !10, !13, !11}
!19 = distinct !{!19, !10}
!20 = distinct !{!20, !10, !11}
!21 = distinct !{!21, !10, !13, !11}
